ARM GAS  /tmp/cc4vUW3N.s 			page 1


   1              		.cpu cortex-m0plus
   2              		.eabi_attribute 20, 1
   3              		.eabi_attribute 21, 1
   4              		.eabi_attribute 23, 3
   5              		.eabi_attribute 24, 1
   6              		.eabi_attribute 25, 1
   7              		.eabi_attribute 26, 1
   8              		.eabi_attribute 30, 1
   9              		.eabi_attribute 34, 0
  10              		.eabi_attribute 18, 4
  11              		.file	"i2c.c"
  12              		.text
  13              	.Ltext0:
  14              		.cfi_sections	.debug_frame
  15              		.section	.text.MX_I2C1_Init,"ax",%progbits
  16              		.align	1
  17              		.global	MX_I2C1_Init
  18              		.arch armv6s-m
  19              		.syntax unified
  20              		.code	16
  21              		.thumb_func
  22              		.fpu softvfp
  24              	MX_I2C1_Init:
  25              	.LFB40:
  26              		.file 1 "Core/Src/i2c.c"
   1:Core/Src/i2c.c **** /**
   2:Core/Src/i2c.c ****   ******************************************************************************
   3:Core/Src/i2c.c ****   * @file    i2c.c
   4:Core/Src/i2c.c ****   * @brief   This file provides code for the configuration
   5:Core/Src/i2c.c ****   *          of the I2C instances.
   6:Core/Src/i2c.c ****   ******************************************************************************
   7:Core/Src/i2c.c ****   * @attention
   8:Core/Src/i2c.c ****   *
   9:Core/Src/i2c.c ****   * <h2><center>&copy; Copyright (c) 2021 STMicroelectronics.
  10:Core/Src/i2c.c ****   * All rights reserved.</center></h2>
  11:Core/Src/i2c.c ****   *
  12:Core/Src/i2c.c ****   * This software component is licensed by ST under BSD 3-Clause license,
  13:Core/Src/i2c.c ****   * the "License"; You may not use this file except in compliance with the
  14:Core/Src/i2c.c ****   * License. You may obtain a copy of the License at:
  15:Core/Src/i2c.c ****   *                        opensource.org/licenses/BSD-3-Clause
  16:Core/Src/i2c.c ****   *
  17:Core/Src/i2c.c ****   ******************************************************************************
  18:Core/Src/i2c.c ****   */
  19:Core/Src/i2c.c **** 
  20:Core/Src/i2c.c **** /* Includes ------------------------------------------------------------------*/
  21:Core/Src/i2c.c **** #include "i2c.h"
  22:Core/Src/i2c.c **** 
  23:Core/Src/i2c.c **** /* USER CODE BEGIN 0 */
  24:Core/Src/i2c.c **** 
  25:Core/Src/i2c.c **** /* USER CODE END 0 */
  26:Core/Src/i2c.c **** 
  27:Core/Src/i2c.c **** I2C_HandleTypeDef hi2c1;
  28:Core/Src/i2c.c **** 
  29:Core/Src/i2c.c **** /* I2C1 init function */
  30:Core/Src/i2c.c **** void MX_I2C1_Init(void)
  31:Core/Src/i2c.c **** {
  27              		.loc 1 31 1 view -0
ARM GAS  /tmp/cc4vUW3N.s 			page 2


  28              		.cfi_startproc
  29              		@ args = 0, pretend = 0, frame = 0
  30              		@ frame_needed = 0, uses_anonymous_args = 0
  31 0000 10B5     		push	{r4, lr}
  32              	.LCFI0:
  33              		.cfi_def_cfa_offset 8
  34              		.cfi_offset 4, -8
  35              		.cfi_offset 14, -4
  32:Core/Src/i2c.c **** 
  33:Core/Src/i2c.c ****   hi2c1.Instance = I2C1;
  36              		.loc 1 33 3 view .LVU1
  37              		.loc 1 33 18 is_stmt 0 view .LVU2
  38 0002 1448     		ldr	r0, .L8
  39 0004 144B     		ldr	r3, .L8+4
  40 0006 0360     		str	r3, [r0]
  34:Core/Src/i2c.c ****   hi2c1.Init.Timing = 0x00707CBB;
  41              		.loc 1 34 3 is_stmt 1 view .LVU3
  42              		.loc 1 34 21 is_stmt 0 view .LVU4
  43 0008 144B     		ldr	r3, .L8+8
  44 000a 4360     		str	r3, [r0, #4]
  35:Core/Src/i2c.c ****   hi2c1.Init.OwnAddress1 = 0;
  45              		.loc 1 35 3 is_stmt 1 view .LVU5
  46              		.loc 1 35 26 is_stmt 0 view .LVU6
  47 000c 0023     		movs	r3, #0
  48 000e 8360     		str	r3, [r0, #8]
  36:Core/Src/i2c.c ****   hi2c1.Init.AddressingMode = I2C_ADDRESSINGMODE_7BIT;
  49              		.loc 1 36 3 is_stmt 1 view .LVU7
  50              		.loc 1 36 29 is_stmt 0 view .LVU8
  51 0010 0122     		movs	r2, #1
  52 0012 C260     		str	r2, [r0, #12]
  37:Core/Src/i2c.c ****   hi2c1.Init.DualAddressMode = I2C_DUALADDRESS_DISABLE;
  53              		.loc 1 37 3 is_stmt 1 view .LVU9
  54              		.loc 1 37 30 is_stmt 0 view .LVU10
  55 0014 0361     		str	r3, [r0, #16]
  38:Core/Src/i2c.c ****   hi2c1.Init.OwnAddress2 = 0;
  56              		.loc 1 38 3 is_stmt 1 view .LVU11
  57              		.loc 1 38 26 is_stmt 0 view .LVU12
  58 0016 4361     		str	r3, [r0, #20]
  39:Core/Src/i2c.c ****   hi2c1.Init.OwnAddress2Masks = I2C_OA2_NOMASK;
  59              		.loc 1 39 3 is_stmt 1 view .LVU13
  60              		.loc 1 39 31 is_stmt 0 view .LVU14
  61 0018 8361     		str	r3, [r0, #24]
  40:Core/Src/i2c.c ****   hi2c1.Init.GeneralCallMode = I2C_GENERALCALL_DISABLE;
  62              		.loc 1 40 3 is_stmt 1 view .LVU15
  63              		.loc 1 40 30 is_stmt 0 view .LVU16
  64 001a C361     		str	r3, [r0, #28]
  41:Core/Src/i2c.c ****   hi2c1.Init.NoStretchMode = I2C_NOSTRETCH_DISABLE;
  65              		.loc 1 41 3 is_stmt 1 view .LVU17
  66              		.loc 1 41 28 is_stmt 0 view .LVU18
  67 001c 0362     		str	r3, [r0, #32]
  42:Core/Src/i2c.c ****   if (HAL_I2C_Init(&hi2c1) != HAL_OK)
  68              		.loc 1 42 3 is_stmt 1 view .LVU19
  69              		.loc 1 42 7 is_stmt 0 view .LVU20
  70 001e FFF7FEFF 		bl	HAL_I2C_Init
  71              	.LVL0:
  72              		.loc 1 42 6 view .LVU21
  73 0022 0028     		cmp	r0, #0
ARM GAS  /tmp/cc4vUW3N.s 			page 3


  74 0024 0CD1     		bne	.L5
  75              	.L2:
  43:Core/Src/i2c.c ****   {
  44:Core/Src/i2c.c ****     Error_Handler();
  45:Core/Src/i2c.c ****   }
  46:Core/Src/i2c.c ****   /** Configure Analogue filter
  47:Core/Src/i2c.c ****   */
  48:Core/Src/i2c.c ****   if (HAL_I2CEx_ConfigAnalogFilter(&hi2c1, I2C_ANALOGFILTER_ENABLE) != HAL_OK)
  76              		.loc 1 48 3 is_stmt 1 view .LVU22
  77              		.loc 1 48 7 is_stmt 0 view .LVU23
  78 0026 0021     		movs	r1, #0
  79 0028 0A48     		ldr	r0, .L8
  80 002a FFF7FEFF 		bl	HAL_I2CEx_ConfigAnalogFilter
  81              	.LVL1:
  82              		.loc 1 48 6 view .LVU24
  83 002e 0028     		cmp	r0, #0
  84 0030 09D1     		bne	.L6
  85              	.L3:
  49:Core/Src/i2c.c ****   {
  50:Core/Src/i2c.c ****     Error_Handler();
  51:Core/Src/i2c.c ****   }
  52:Core/Src/i2c.c ****   /** Configure Digital filter
  53:Core/Src/i2c.c ****   */
  54:Core/Src/i2c.c ****   if (HAL_I2CEx_ConfigDigitalFilter(&hi2c1, 0) != HAL_OK)
  86              		.loc 1 54 3 is_stmt 1 view .LVU25
  87              		.loc 1 54 7 is_stmt 0 view .LVU26
  88 0032 0021     		movs	r1, #0
  89 0034 0748     		ldr	r0, .L8
  90 0036 FFF7FEFF 		bl	HAL_I2CEx_ConfigDigitalFilter
  91              	.LVL2:
  92              		.loc 1 54 6 view .LVU27
  93 003a 0028     		cmp	r0, #0
  94 003c 06D1     		bne	.L7
  95              	.L1:
  55:Core/Src/i2c.c ****   {
  56:Core/Src/i2c.c ****     Error_Handler();
  57:Core/Src/i2c.c ****   }
  58:Core/Src/i2c.c **** 
  59:Core/Src/i2c.c **** }
  96              		.loc 1 59 1 view .LVU28
  97              		@ sp needed
  98 003e 10BD     		pop	{r4, pc}
  99              	.L5:
  44:Core/Src/i2c.c ****   }
 100              		.loc 1 44 5 is_stmt 1 view .LVU29
 101 0040 FFF7FEFF 		bl	Error_Handler
 102              	.LVL3:
 103 0044 EFE7     		b	.L2
 104              	.L6:
  50:Core/Src/i2c.c ****   }
 105              		.loc 1 50 5 view .LVU30
 106 0046 FFF7FEFF 		bl	Error_Handler
 107              	.LVL4:
 108 004a F2E7     		b	.L3
 109              	.L7:
  56:Core/Src/i2c.c ****   }
 110              		.loc 1 56 5 view .LVU31
ARM GAS  /tmp/cc4vUW3N.s 			page 4


 111 004c FFF7FEFF 		bl	Error_Handler
 112              	.LVL5:
 113              		.loc 1 59 1 is_stmt 0 view .LVU32
 114 0050 F5E7     		b	.L1
 115              	.L9:
 116 0052 C046     		.align	2
 117              	.L8:
 118 0054 00000000 		.word	hi2c1
 119 0058 00540040 		.word	1073763328
 120 005c BB7C7000 		.word	7371963
 121              		.cfi_endproc
 122              	.LFE40:
 124              		.section	.text.HAL_I2C_MspInit,"ax",%progbits
 125              		.align	1
 126              		.global	HAL_I2C_MspInit
 127              		.syntax unified
 128              		.code	16
 129              		.thumb_func
 130              		.fpu softvfp
 132              	HAL_I2C_MspInit:
 133              	.LVL6:
 134              	.LFB41:
  60:Core/Src/i2c.c **** 
  61:Core/Src/i2c.c **** void HAL_I2C_MspInit(I2C_HandleTypeDef* i2cHandle)
  62:Core/Src/i2c.c **** {
 135              		.loc 1 62 1 is_stmt 1 view -0
 136              		.cfi_startproc
 137              		@ args = 0, pretend = 0, frame = 24
 138              		@ frame_needed = 0, uses_anonymous_args = 0
 139              		.loc 1 62 1 is_stmt 0 view .LVU34
 140 0000 10B5     		push	{r4, lr}
 141              	.LCFI1:
 142              		.cfi_def_cfa_offset 8
 143              		.cfi_offset 4, -8
 144              		.cfi_offset 14, -4
 145 0002 86B0     		sub	sp, sp, #24
 146              	.LCFI2:
 147              		.cfi_def_cfa_offset 32
 148 0004 0400     		movs	r4, r0
  63:Core/Src/i2c.c **** 
  64:Core/Src/i2c.c ****   GPIO_InitTypeDef GPIO_InitStruct = {0};
 149              		.loc 1 64 3 is_stmt 1 view .LVU35
 150              		.loc 1 64 20 is_stmt 0 view .LVU36
 151 0006 1422     		movs	r2, #20
 152 0008 0021     		movs	r1, #0
 153 000a 01A8     		add	r0, sp, #4
 154              	.LVL7:
 155              		.loc 1 64 20 view .LVU37
 156 000c FFF7FEFF 		bl	memset
 157              	.LVL8:
  65:Core/Src/i2c.c ****   if(i2cHandle->Instance==I2C1)
 158              		.loc 1 65 3 is_stmt 1 view .LVU38
 159              		.loc 1 65 15 is_stmt 0 view .LVU39
 160 0010 2268     		ldr	r2, [r4]
 161              		.loc 1 65 5 view .LVU40
 162 0012 114B     		ldr	r3, .L13
 163 0014 9A42     		cmp	r2, r3
ARM GAS  /tmp/cc4vUW3N.s 			page 5


 164 0016 01D0     		beq	.L12
 165              	.LVL9:
 166              	.L10:
  66:Core/Src/i2c.c ****   {
  67:Core/Src/i2c.c ****   /* USER CODE BEGIN I2C1_MspInit 0 */
  68:Core/Src/i2c.c **** 
  69:Core/Src/i2c.c ****   /* USER CODE END I2C1_MspInit 0 */
  70:Core/Src/i2c.c **** 
  71:Core/Src/i2c.c ****     __HAL_RCC_GPIOA_CLK_ENABLE();
  72:Core/Src/i2c.c ****     /**I2C1 GPIO Configuration
  73:Core/Src/i2c.c ****     PA9     ------> I2C1_SCL
  74:Core/Src/i2c.c ****     PA10     ------> I2C1_SDA
  75:Core/Src/i2c.c ****     */
  76:Core/Src/i2c.c ****     GPIO_InitStruct.Pin = GPIO_PIN_9|GPIO_PIN_10;
  77:Core/Src/i2c.c ****     GPIO_InitStruct.Mode = GPIO_MODE_AF_OD;
  78:Core/Src/i2c.c ****     GPIO_InitStruct.Pull = GPIO_PULLUP;
  79:Core/Src/i2c.c ****     GPIO_InitStruct.Speed = GPIO_SPEED_FREQ_VERY_HIGH;
  80:Core/Src/i2c.c ****     GPIO_InitStruct.Alternate = GPIO_AF1_I2C1;
  81:Core/Src/i2c.c ****     HAL_GPIO_Init(GPIOA, &GPIO_InitStruct);
  82:Core/Src/i2c.c **** 
  83:Core/Src/i2c.c ****     /* I2C1 clock enable */
  84:Core/Src/i2c.c ****     __HAL_RCC_I2C1_CLK_ENABLE();
  85:Core/Src/i2c.c ****   /* USER CODE BEGIN I2C1_MspInit 1 */
  86:Core/Src/i2c.c **** 
  87:Core/Src/i2c.c ****   /* USER CODE END I2C1_MspInit 1 */
  88:Core/Src/i2c.c ****   }
  89:Core/Src/i2c.c **** }
 167              		.loc 1 89 1 view .LVU41
 168 0018 06B0     		add	sp, sp, #24
 169              		@ sp needed
 170 001a 10BD     		pop	{r4, pc}
 171              	.LVL10:
 172              	.L12:
  71:Core/Src/i2c.c ****     /**I2C1 GPIO Configuration
 173              		.loc 1 71 5 is_stmt 1 view .LVU42
 174              	.LBB2:
  71:Core/Src/i2c.c ****     /**I2C1 GPIO Configuration
 175              		.loc 1 71 5 view .LVU43
  71:Core/Src/i2c.c ****     /**I2C1 GPIO Configuration
 176              		.loc 1 71 5 view .LVU44
 177 001c 0F4C     		ldr	r4, .L13+4
 178              	.LVL11:
  71:Core/Src/i2c.c ****     /**I2C1 GPIO Configuration
 179              		.loc 1 71 5 is_stmt 0 view .LVU45
 180 001e E26A     		ldr	r2, [r4, #44]
 181 0020 0123     		movs	r3, #1
 182 0022 1A43     		orrs	r2, r3
 183 0024 E262     		str	r2, [r4, #44]
  71:Core/Src/i2c.c ****     /**I2C1 GPIO Configuration
 184              		.loc 1 71 5 is_stmt 1 view .LVU46
 185 0026 E26A     		ldr	r2, [r4, #44]
 186 0028 1A40     		ands	r2, r3
 187 002a 0092     		str	r2, [sp]
  71:Core/Src/i2c.c ****     /**I2C1 GPIO Configuration
 188              		.loc 1 71 5 view .LVU47
 189 002c 009A     		ldr	r2, [sp]
 190              	.LBE2:
ARM GAS  /tmp/cc4vUW3N.s 			page 6


  71:Core/Src/i2c.c ****     /**I2C1 GPIO Configuration
 191              		.loc 1 71 5 view .LVU48
  76:Core/Src/i2c.c ****     GPIO_InitStruct.Mode = GPIO_MODE_AF_OD;
 192              		.loc 1 76 5 view .LVU49
  76:Core/Src/i2c.c ****     GPIO_InitStruct.Mode = GPIO_MODE_AF_OD;
 193              		.loc 1 76 25 is_stmt 0 view .LVU50
 194 002e C022     		movs	r2, #192
 195 0030 D200     		lsls	r2, r2, #3
 196 0032 0192     		str	r2, [sp, #4]
  77:Core/Src/i2c.c ****     GPIO_InitStruct.Pull = GPIO_PULLUP;
 197              		.loc 1 77 5 is_stmt 1 view .LVU51
  77:Core/Src/i2c.c ****     GPIO_InitStruct.Pull = GPIO_PULLUP;
 198              		.loc 1 77 26 is_stmt 0 view .LVU52
 199 0034 1222     		movs	r2, #18
 200 0036 0292     		str	r2, [sp, #8]
  78:Core/Src/i2c.c ****     GPIO_InitStruct.Speed = GPIO_SPEED_FREQ_VERY_HIGH;
 201              		.loc 1 78 5 is_stmt 1 view .LVU53
  78:Core/Src/i2c.c ****     GPIO_InitStruct.Speed = GPIO_SPEED_FREQ_VERY_HIGH;
 202              		.loc 1 78 26 is_stmt 0 view .LVU54
 203 0038 0393     		str	r3, [sp, #12]
  79:Core/Src/i2c.c ****     GPIO_InitStruct.Alternate = GPIO_AF1_I2C1;
 204              		.loc 1 79 5 is_stmt 1 view .LVU55
  79:Core/Src/i2c.c ****     GPIO_InitStruct.Alternate = GPIO_AF1_I2C1;
 205              		.loc 1 79 27 is_stmt 0 view .LVU56
 206 003a 0F3A     		subs	r2, r2, #15
 207 003c 0492     		str	r2, [sp, #16]
  80:Core/Src/i2c.c ****     HAL_GPIO_Init(GPIOA, &GPIO_InitStruct);
 208              		.loc 1 80 5 is_stmt 1 view .LVU57
  80:Core/Src/i2c.c ****     HAL_GPIO_Init(GPIOA, &GPIO_InitStruct);
 209              		.loc 1 80 31 is_stmt 0 view .LVU58
 210 003e 0593     		str	r3, [sp, #20]
  81:Core/Src/i2c.c **** 
 211              		.loc 1 81 5 is_stmt 1 view .LVU59
 212 0040 A020     		movs	r0, #160
 213 0042 01A9     		add	r1, sp, #4
 214 0044 C005     		lsls	r0, r0, #23
 215 0046 FFF7FEFF 		bl	HAL_GPIO_Init
 216              	.LVL12:
  84:Core/Src/i2c.c ****   /* USER CODE BEGIN I2C1_MspInit 1 */
 217              		.loc 1 84 5 view .LVU60
 218 004a A26B     		ldr	r2, [r4, #56]
 219 004c 8023     		movs	r3, #128
 220 004e 9B03     		lsls	r3, r3, #14
 221 0050 1343     		orrs	r3, r2
 222 0052 A363     		str	r3, [r4, #56]
 223              		.loc 1 89 1 is_stmt 0 view .LVU61
 224 0054 E0E7     		b	.L10
 225              	.L14:
 226 0056 C046     		.align	2
 227              	.L13:
 228 0058 00540040 		.word	1073763328
 229 005c 00100240 		.word	1073876992
 230              		.cfi_endproc
 231              	.LFE41:
 233              		.section	.text.HAL_I2C_MspDeInit,"ax",%progbits
 234              		.align	1
 235              		.global	HAL_I2C_MspDeInit
ARM GAS  /tmp/cc4vUW3N.s 			page 7


 236              		.syntax unified
 237              		.code	16
 238              		.thumb_func
 239              		.fpu softvfp
 241              	HAL_I2C_MspDeInit:
 242              	.LVL13:
 243              	.LFB42:
  90:Core/Src/i2c.c **** 
  91:Core/Src/i2c.c **** void HAL_I2C_MspDeInit(I2C_HandleTypeDef* i2cHandle)
  92:Core/Src/i2c.c **** {
 244              		.loc 1 92 1 is_stmt 1 view -0
 245              		.cfi_startproc
 246              		@ args = 0, pretend = 0, frame = 0
 247              		@ frame_needed = 0, uses_anonymous_args = 0
 248              		.loc 1 92 1 is_stmt 0 view .LVU63
 249 0000 10B5     		push	{r4, lr}
 250              	.LCFI3:
 251              		.cfi_def_cfa_offset 8
 252              		.cfi_offset 4, -8
 253              		.cfi_offset 14, -4
  93:Core/Src/i2c.c **** 
  94:Core/Src/i2c.c ****   if(i2cHandle->Instance==I2C1)
 254              		.loc 1 94 3 is_stmt 1 view .LVU64
 255              		.loc 1 94 15 is_stmt 0 view .LVU65
 256 0002 0268     		ldr	r2, [r0]
 257              		.loc 1 94 5 view .LVU66
 258 0004 0A4B     		ldr	r3, .L18
 259 0006 9A42     		cmp	r2, r3
 260 0008 00D0     		beq	.L17
 261              	.LVL14:
 262              	.L15:
  95:Core/Src/i2c.c ****   {
  96:Core/Src/i2c.c ****   /* USER CODE BEGIN I2C1_MspDeInit 0 */
  97:Core/Src/i2c.c **** 
  98:Core/Src/i2c.c ****   /* USER CODE END I2C1_MspDeInit 0 */
  99:Core/Src/i2c.c ****     /* Peripheral clock disable */
 100:Core/Src/i2c.c ****     __HAL_RCC_I2C1_CLK_DISABLE();
 101:Core/Src/i2c.c **** 
 102:Core/Src/i2c.c ****     /**I2C1 GPIO Configuration
 103:Core/Src/i2c.c ****     PA9     ------> I2C1_SCL
 104:Core/Src/i2c.c ****     PA10     ------> I2C1_SDA
 105:Core/Src/i2c.c ****     */
 106:Core/Src/i2c.c ****     HAL_GPIO_DeInit(GPIOA, GPIO_PIN_9);
 107:Core/Src/i2c.c **** 
 108:Core/Src/i2c.c ****     HAL_GPIO_DeInit(GPIOA, GPIO_PIN_10);
 109:Core/Src/i2c.c **** 
 110:Core/Src/i2c.c ****   /* USER CODE BEGIN I2C1_MspDeInit 1 */
 111:Core/Src/i2c.c **** 
 112:Core/Src/i2c.c ****   /* USER CODE END I2C1_MspDeInit 1 */
 113:Core/Src/i2c.c ****   }
 114:Core/Src/i2c.c **** }
 263              		.loc 1 114 1 view .LVU67
 264              		@ sp needed
 265 000a 10BD     		pop	{r4, pc}
 266              	.LVL15:
 267              	.L17:
 100:Core/Src/i2c.c **** 
ARM GAS  /tmp/cc4vUW3N.s 			page 8


 268              		.loc 1 100 5 is_stmt 1 view .LVU68
 269 000c 094A     		ldr	r2, .L18+4
 270 000e 936B     		ldr	r3, [r2, #56]
 271 0010 0949     		ldr	r1, .L18+8
 272 0012 0B40     		ands	r3, r1
 273 0014 9363     		str	r3, [r2, #56]
 106:Core/Src/i2c.c **** 
 274              		.loc 1 106 5 view .LVU69
 275 0016 8021     		movs	r1, #128
 276 0018 A024     		movs	r4, #160
 277 001a E405     		lsls	r4, r4, #23
 278 001c 8900     		lsls	r1, r1, #2
 279 001e 2000     		movs	r0, r4
 280              	.LVL16:
 106:Core/Src/i2c.c **** 
 281              		.loc 1 106 5 is_stmt 0 view .LVU70
 282 0020 FFF7FEFF 		bl	HAL_GPIO_DeInit
 283              	.LVL17:
 108:Core/Src/i2c.c **** 
 284              		.loc 1 108 5 is_stmt 1 view .LVU71
 285 0024 8021     		movs	r1, #128
 286 0026 C900     		lsls	r1, r1, #3
 287 0028 2000     		movs	r0, r4
 288 002a FFF7FEFF 		bl	HAL_GPIO_DeInit
 289              	.LVL18:
 290              		.loc 1 114 1 is_stmt 0 view .LVU72
 291 002e ECE7     		b	.L15
 292              	.L19:
 293              		.align	2
 294              	.L18:
 295 0030 00540040 		.word	1073763328
 296 0034 00100240 		.word	1073876992
 297 0038 FFFFDFFF 		.word	-2097153
 298              		.cfi_endproc
 299              	.LFE42:
 301              		.comm	hi2c1,76,4
 302              		.text
 303              	.Letext0:
 304              		.file 2 "/usr/lib/gcc/arm-none-eabi/9.2.1/include/stdint.h"
 305              		.file 3 "Drivers/CMSIS/Device/ST/STM32L0xx/Include/system_stm32l0xx.h"
 306              		.file 4 "Drivers/CMSIS/Device/ST/STM32L0xx/Include/stm32l011xx.h"
 307              		.file 5 "Drivers/STM32L0xx_HAL_Driver/Inc/stm32l0xx_hal_def.h"
 308              		.file 6 "Drivers/STM32L0xx_HAL_Driver/Inc/stm32l0xx_hal_gpio.h"
 309              		.file 7 "Drivers/STM32L0xx_HAL_Driver/Inc/stm32l0xx_hal_dma.h"
 310              		.file 8 "Drivers/STM32L0xx_HAL_Driver/Inc/stm32l0xx_hal_i2c.h"
 311              		.file 9 "Drivers/STM32L0xx_HAL_Driver/Inc/stm32l0xx_hal.h"
 312              		.file 10 "Core/Inc/i2c.h"
 313              		.file 11 "Drivers/STM32L0xx_HAL_Driver/Inc/stm32l0xx_hal_i2c_ex.h"
 314              		.file 12 "Core/Inc/main.h"
 315              		.file 13 "<built-in>"
ARM GAS  /tmp/cc4vUW3N.s 			page 9

