ARM GAS  /tmp/ccjOi2j1.s 			page 1


   1              		.cpu cortex-m0plus
   2              		.eabi_attribute 20, 1
   3              		.eabi_attribute 21, 1
   4              		.eabi_attribute 23, 3
   5              		.eabi_attribute 24, 1
   6              		.eabi_attribute 25, 1
   7              		.eabi_attribute 26, 1
   8              		.eabi_attribute 30, 1
   9              		.eabi_attribute 34, 0
  10              		.eabi_attribute 18, 4
  11              		.file	"usart.c"
  12              		.text
  13              	.Ltext0:
  14              		.cfi_sections	.debug_frame
  15              		.section	.text.MX_LPUART1_UART_Init,"ax",%progbits
  16              		.align	1
  17              		.global	MX_LPUART1_UART_Init
  18              		.arch armv6s-m
  19              		.syntax unified
  20              		.code	16
  21              		.thumb_func
  22              		.fpu softvfp
  24              	MX_LPUART1_UART_Init:
  25              	.LFB40:
  26              		.file 1 "Core/Src/usart.c"
   1:Core/Src/usart.c **** /**
   2:Core/Src/usart.c ****   ******************************************************************************
   3:Core/Src/usart.c ****   * @file    usart.c
   4:Core/Src/usart.c ****   * @brief   This file provides code for the configuration
   5:Core/Src/usart.c ****   *          of the USART instances.
   6:Core/Src/usart.c ****   ******************************************************************************
   7:Core/Src/usart.c ****   * @attention
   8:Core/Src/usart.c ****   *
   9:Core/Src/usart.c ****   * <h2><center>&copy; Copyright (c) 2021 STMicroelectronics.
  10:Core/Src/usart.c ****   * All rights reserved.</center></h2>
  11:Core/Src/usart.c ****   *
  12:Core/Src/usart.c ****   * This software component is licensed by ST under BSD 3-Clause license,
  13:Core/Src/usart.c ****   * the "License"; You may not use this file except in compliance with the
  14:Core/Src/usart.c ****   * License. You may obtain a copy of the License at:
  15:Core/Src/usart.c ****   *                        opensource.org/licenses/BSD-3-Clause
  16:Core/Src/usart.c ****   *
  17:Core/Src/usart.c ****   ******************************************************************************
  18:Core/Src/usart.c ****   */
  19:Core/Src/usart.c **** 
  20:Core/Src/usart.c **** /* Includes ------------------------------------------------------------------*/
  21:Core/Src/usart.c **** #include "usart.h"
  22:Core/Src/usart.c **** 
  23:Core/Src/usart.c **** /* USER CODE BEGIN 0 */
  24:Core/Src/usart.c **** 
  25:Core/Src/usart.c **** /* USER CODE END 0 */
  26:Core/Src/usart.c **** 
  27:Core/Src/usart.c **** UART_HandleTypeDef hlpuart1;
  28:Core/Src/usart.c **** 
  29:Core/Src/usart.c **** /* LPUART1 init function */
  30:Core/Src/usart.c **** 
  31:Core/Src/usart.c **** void MX_LPUART1_UART_Init(void)
  32:Core/Src/usart.c **** {
ARM GAS  /tmp/ccjOi2j1.s 			page 2


  27              		.loc 1 32 1 view -0
  28              		.cfi_startproc
  29              		@ args = 0, pretend = 0, frame = 0
  30              		@ frame_needed = 0, uses_anonymous_args = 0
  31 0000 10B5     		push	{r4, lr}
  32              	.LCFI0:
  33              		.cfi_def_cfa_offset 8
  34              		.cfi_offset 4, -8
  35              		.cfi_offset 14, -4
  33:Core/Src/usart.c **** 
  34:Core/Src/usart.c ****   hlpuart1.Instance = LPUART1;
  36              		.loc 1 34 3 view .LVU1
  37              		.loc 1 34 21 is_stmt 0 view .LVU2
  38 0002 0B48     		ldr	r0, .L4
  39 0004 0B4B     		ldr	r3, .L4+4
  40 0006 0360     		str	r3, [r0]
  35:Core/Src/usart.c ****   hlpuart1.Init.BaudRate = 115200;
  41              		.loc 1 35 3 is_stmt 1 view .LVU3
  42              		.loc 1 35 26 is_stmt 0 view .LVU4
  43 0008 E123     		movs	r3, #225
  44 000a 5B02     		lsls	r3, r3, #9
  45 000c 4360     		str	r3, [r0, #4]
  36:Core/Src/usart.c ****   hlpuart1.Init.WordLength = UART_WORDLENGTH_8B;
  46              		.loc 1 36 3 is_stmt 1 view .LVU5
  47              		.loc 1 36 28 is_stmt 0 view .LVU6
  48 000e 0023     		movs	r3, #0
  49 0010 8360     		str	r3, [r0, #8]
  37:Core/Src/usart.c ****   hlpuart1.Init.StopBits = UART_STOPBITS_1;
  50              		.loc 1 37 3 is_stmt 1 view .LVU7
  51              		.loc 1 37 26 is_stmt 0 view .LVU8
  52 0012 C360     		str	r3, [r0, #12]
  38:Core/Src/usart.c ****   hlpuart1.Init.Parity = UART_PARITY_NONE;
  53              		.loc 1 38 3 is_stmt 1 view .LVU9
  54              		.loc 1 38 24 is_stmt 0 view .LVU10
  55 0014 0361     		str	r3, [r0, #16]
  39:Core/Src/usart.c ****   hlpuart1.Init.Mode = UART_MODE_TX_RX;
  56              		.loc 1 39 3 is_stmt 1 view .LVU11
  57              		.loc 1 39 22 is_stmt 0 view .LVU12
  58 0016 0C22     		movs	r2, #12
  59 0018 4261     		str	r2, [r0, #20]
  40:Core/Src/usart.c ****   hlpuart1.Init.HwFlowCtl = UART_HWCONTROL_NONE;
  60              		.loc 1 40 3 is_stmt 1 view .LVU13
  61              		.loc 1 40 27 is_stmt 0 view .LVU14
  62 001a 8361     		str	r3, [r0, #24]
  41:Core/Src/usart.c ****   hlpuart1.Init.OneBitSampling = UART_ONE_BIT_SAMPLE_DISABLE;
  63              		.loc 1 41 3 is_stmt 1 view .LVU15
  64              		.loc 1 41 32 is_stmt 0 view .LVU16
  65 001c 0362     		str	r3, [r0, #32]
  42:Core/Src/usart.c ****   hlpuart1.AdvancedInit.AdvFeatureInit = UART_ADVFEATURE_NO_INIT;
  66              		.loc 1 42 3 is_stmt 1 view .LVU17
  67              		.loc 1 42 40 is_stmt 0 view .LVU18
  68 001e 4362     		str	r3, [r0, #36]
  43:Core/Src/usart.c ****   if (HAL_UART_Init(&hlpuart1) != HAL_OK)
  69              		.loc 1 43 3 is_stmt 1 view .LVU19
  70              		.loc 1 43 7 is_stmt 0 view .LVU20
  71 0020 FFF7FEFF 		bl	HAL_UART_Init
  72              	.LVL0:
ARM GAS  /tmp/ccjOi2j1.s 			page 3


  73              		.loc 1 43 6 view .LVU21
  74 0024 0028     		cmp	r0, #0
  75 0026 00D1     		bne	.L3
  76              	.L1:
  44:Core/Src/usart.c ****   {
  45:Core/Src/usart.c ****     Error_Handler();
  46:Core/Src/usart.c ****   }
  47:Core/Src/usart.c **** 
  48:Core/Src/usart.c **** }
  77              		.loc 1 48 1 view .LVU22
  78              		@ sp needed
  79 0028 10BD     		pop	{r4, pc}
  80              	.L3:
  45:Core/Src/usart.c ****   }
  81              		.loc 1 45 5 is_stmt 1 view .LVU23
  82 002a FFF7FEFF 		bl	Error_Handler
  83              	.LVL1:
  84              		.loc 1 48 1 is_stmt 0 view .LVU24
  85 002e FBE7     		b	.L1
  86              	.L5:
  87              		.align	2
  88              	.L4:
  89 0030 00000000 		.word	hlpuart1
  90 0034 00480040 		.word	1073760256
  91              		.cfi_endproc
  92              	.LFE40:
  94              		.section	.text.HAL_UART_MspInit,"ax",%progbits
  95              		.align	1
  96              		.global	HAL_UART_MspInit
  97              		.syntax unified
  98              		.code	16
  99              		.thumb_func
 100              		.fpu softvfp
 102              	HAL_UART_MspInit:
 103              	.LVL2:
 104              	.LFB41:
  49:Core/Src/usart.c **** 
  50:Core/Src/usart.c **** void HAL_UART_MspInit(UART_HandleTypeDef* uartHandle)
  51:Core/Src/usart.c **** {
 105              		.loc 1 51 1 is_stmt 1 view -0
 106              		.cfi_startproc
 107              		@ args = 0, pretend = 0, frame = 24
 108              		@ frame_needed = 0, uses_anonymous_args = 0
 109              		.loc 1 51 1 is_stmt 0 view .LVU26
 110 0000 10B5     		push	{r4, lr}
 111              	.LCFI1:
 112              		.cfi_def_cfa_offset 8
 113              		.cfi_offset 4, -8
 114              		.cfi_offset 14, -4
 115 0002 86B0     		sub	sp, sp, #24
 116              	.LCFI2:
 117              		.cfi_def_cfa_offset 32
 118 0004 0400     		movs	r4, r0
  52:Core/Src/usart.c **** 
  53:Core/Src/usart.c ****   GPIO_InitTypeDef GPIO_InitStruct = {0};
 119              		.loc 1 53 3 is_stmt 1 view .LVU27
 120              		.loc 1 53 20 is_stmt 0 view .LVU28
ARM GAS  /tmp/ccjOi2j1.s 			page 4


 121 0006 1422     		movs	r2, #20
 122 0008 0021     		movs	r1, #0
 123 000a 01A8     		add	r0, sp, #4
 124              	.LVL3:
 125              		.loc 1 53 20 view .LVU29
 126 000c FFF7FEFF 		bl	memset
 127              	.LVL4:
  54:Core/Src/usart.c ****   if(uartHandle->Instance==LPUART1)
 128              		.loc 1 54 3 is_stmt 1 view .LVU30
 129              		.loc 1 54 16 is_stmt 0 view .LVU31
 130 0010 2268     		ldr	r2, [r4]
 131              		.loc 1 54 5 view .LVU32
 132 0012 114B     		ldr	r3, .L9
 133 0014 9A42     		cmp	r2, r3
 134 0016 01D0     		beq	.L8
 135              	.L6:
  55:Core/Src/usart.c ****   {
  56:Core/Src/usart.c ****   /* USER CODE BEGIN LPUART1_MspInit 0 */
  57:Core/Src/usart.c **** 
  58:Core/Src/usart.c ****   /* USER CODE END LPUART1_MspInit 0 */
  59:Core/Src/usart.c ****     /* LPUART1 clock enable */
  60:Core/Src/usart.c ****     __HAL_RCC_LPUART1_CLK_ENABLE();
  61:Core/Src/usart.c **** 
  62:Core/Src/usart.c ****     __HAL_RCC_GPIOA_CLK_ENABLE();
  63:Core/Src/usart.c ****     /**LPUART1 GPIO Configuration
  64:Core/Src/usart.c ****     PA0-CK_IN     ------> LPUART1_RX
  65:Core/Src/usart.c ****     PA1     ------> LPUART1_TX
  66:Core/Src/usart.c ****     */
  67:Core/Src/usart.c ****     GPIO_InitStruct.Pin = GPIO_PIN_0|GPIO_PIN_1;
  68:Core/Src/usart.c ****     GPIO_InitStruct.Mode = GPIO_MODE_AF_PP;
  69:Core/Src/usart.c ****     GPIO_InitStruct.Pull = GPIO_NOPULL;
  70:Core/Src/usart.c ****     GPIO_InitStruct.Speed = GPIO_SPEED_FREQ_VERY_HIGH;
  71:Core/Src/usart.c ****     GPIO_InitStruct.Alternate = GPIO_AF6_LPUART1;
  72:Core/Src/usart.c ****     HAL_GPIO_Init(GPIOA, &GPIO_InitStruct);
  73:Core/Src/usart.c **** 
  74:Core/Src/usart.c ****   /* USER CODE BEGIN LPUART1_MspInit 1 */
  75:Core/Src/usart.c **** 
  76:Core/Src/usart.c ****   /* USER CODE END LPUART1_MspInit 1 */
  77:Core/Src/usart.c ****   }
  78:Core/Src/usart.c **** }
 136              		.loc 1 78 1 view .LVU33
 137 0018 06B0     		add	sp, sp, #24
 138              		@ sp needed
 139              	.LVL5:
 140              		.loc 1 78 1 view .LVU34
 141 001a 10BD     		pop	{r4, pc}
 142              	.LVL6:
 143              	.L8:
  60:Core/Src/usart.c **** 
 144              		.loc 1 60 5 is_stmt 1 view .LVU35
 145 001c 0F4B     		ldr	r3, .L9+4
 146 001e 996B     		ldr	r1, [r3, #56]
 147 0020 8022     		movs	r2, #128
 148 0022 D202     		lsls	r2, r2, #11
 149 0024 0A43     		orrs	r2, r1
 150 0026 9A63     		str	r2, [r3, #56]
  62:Core/Src/usart.c ****     /**LPUART1 GPIO Configuration
ARM GAS  /tmp/ccjOi2j1.s 			page 5


 151              		.loc 1 62 5 view .LVU36
 152              	.LBB2:
  62:Core/Src/usart.c ****     /**LPUART1 GPIO Configuration
 153              		.loc 1 62 5 view .LVU37
  62:Core/Src/usart.c ****     /**LPUART1 GPIO Configuration
 154              		.loc 1 62 5 view .LVU38
 155 0028 D96A     		ldr	r1, [r3, #44]
 156 002a 0122     		movs	r2, #1
 157 002c 1143     		orrs	r1, r2
 158 002e D962     		str	r1, [r3, #44]
  62:Core/Src/usart.c ****     /**LPUART1 GPIO Configuration
 159              		.loc 1 62 5 view .LVU39
 160 0030 DB6A     		ldr	r3, [r3, #44]
 161 0032 1A40     		ands	r2, r3
 162 0034 0092     		str	r2, [sp]
  62:Core/Src/usart.c ****     /**LPUART1 GPIO Configuration
 163              		.loc 1 62 5 view .LVU40
 164 0036 009B     		ldr	r3, [sp]
 165              	.LBE2:
  62:Core/Src/usart.c ****     /**LPUART1 GPIO Configuration
 166              		.loc 1 62 5 view .LVU41
  67:Core/Src/usart.c ****     GPIO_InitStruct.Mode = GPIO_MODE_AF_PP;
 167              		.loc 1 67 5 view .LVU42
  67:Core/Src/usart.c ****     GPIO_InitStruct.Mode = GPIO_MODE_AF_PP;
 168              		.loc 1 67 25 is_stmt 0 view .LVU43
 169 0038 0323     		movs	r3, #3
 170 003a 0193     		str	r3, [sp, #4]
  68:Core/Src/usart.c ****     GPIO_InitStruct.Pull = GPIO_NOPULL;
 171              		.loc 1 68 5 is_stmt 1 view .LVU44
  68:Core/Src/usart.c ****     GPIO_InitStruct.Pull = GPIO_NOPULL;
 172              		.loc 1 68 26 is_stmt 0 view .LVU45
 173 003c 0222     		movs	r2, #2
 174 003e 0292     		str	r2, [sp, #8]
  69:Core/Src/usart.c ****     GPIO_InitStruct.Speed = GPIO_SPEED_FREQ_VERY_HIGH;
 175              		.loc 1 69 5 is_stmt 1 view .LVU46
  69:Core/Src/usart.c ****     GPIO_InitStruct.Speed = GPIO_SPEED_FREQ_VERY_HIGH;
 176              		.loc 1 69 26 is_stmt 0 view .LVU47
 177 0040 0022     		movs	r2, #0
 178 0042 0392     		str	r2, [sp, #12]
  70:Core/Src/usart.c ****     GPIO_InitStruct.Alternate = GPIO_AF6_LPUART1;
 179              		.loc 1 70 5 is_stmt 1 view .LVU48
  70:Core/Src/usart.c ****     GPIO_InitStruct.Alternate = GPIO_AF6_LPUART1;
 180              		.loc 1 70 27 is_stmt 0 view .LVU49
 181 0044 0493     		str	r3, [sp, #16]
  71:Core/Src/usart.c ****     HAL_GPIO_Init(GPIOA, &GPIO_InitStruct);
 182              		.loc 1 71 5 is_stmt 1 view .LVU50
  71:Core/Src/usart.c ****     HAL_GPIO_Init(GPIOA, &GPIO_InitStruct);
 183              		.loc 1 71 31 is_stmt 0 view .LVU51
 184 0046 0333     		adds	r3, r3, #3
 185 0048 0593     		str	r3, [sp, #20]
  72:Core/Src/usart.c **** 
 186              		.loc 1 72 5 is_stmt 1 view .LVU52
 187 004a A020     		movs	r0, #160
 188 004c 01A9     		add	r1, sp, #4
 189 004e C005     		lsls	r0, r0, #23
 190 0050 FFF7FEFF 		bl	HAL_GPIO_Init
 191              	.LVL7:
ARM GAS  /tmp/ccjOi2j1.s 			page 6


 192              		.loc 1 78 1 is_stmt 0 view .LVU53
 193 0054 E0E7     		b	.L6
 194              	.L10:
 195 0056 C046     		.align	2
 196              	.L9:
 197 0058 00480040 		.word	1073760256
 198 005c 00100240 		.word	1073876992
 199              		.cfi_endproc
 200              	.LFE41:
 202              		.section	.text.HAL_UART_MspDeInit,"ax",%progbits
 203              		.align	1
 204              		.global	HAL_UART_MspDeInit
 205              		.syntax unified
 206              		.code	16
 207              		.thumb_func
 208              		.fpu softvfp
 210              	HAL_UART_MspDeInit:
 211              	.LVL8:
 212              	.LFB42:
  79:Core/Src/usart.c **** 
  80:Core/Src/usart.c **** void HAL_UART_MspDeInit(UART_HandleTypeDef* uartHandle)
  81:Core/Src/usart.c **** {
 213              		.loc 1 81 1 is_stmt 1 view -0
 214              		.cfi_startproc
 215              		@ args = 0, pretend = 0, frame = 0
 216              		@ frame_needed = 0, uses_anonymous_args = 0
 217              		.loc 1 81 1 is_stmt 0 view .LVU55
 218 0000 10B5     		push	{r4, lr}
 219              	.LCFI3:
 220              		.cfi_def_cfa_offset 8
 221              		.cfi_offset 4, -8
 222              		.cfi_offset 14, -4
  82:Core/Src/usart.c **** 
  83:Core/Src/usart.c ****   if(uartHandle->Instance==LPUART1)
 223              		.loc 1 83 3 is_stmt 1 view .LVU56
 224              		.loc 1 83 16 is_stmt 0 view .LVU57
 225 0002 0268     		ldr	r2, [r0]
 226              		.loc 1 83 5 view .LVU58
 227 0004 074B     		ldr	r3, .L14
 228 0006 9A42     		cmp	r2, r3
 229 0008 00D0     		beq	.L13
 230              	.LVL9:
 231              	.L11:
  84:Core/Src/usart.c ****   {
  85:Core/Src/usart.c ****   /* USER CODE BEGIN LPUART1_MspDeInit 0 */
  86:Core/Src/usart.c **** 
  87:Core/Src/usart.c ****   /* USER CODE END LPUART1_MspDeInit 0 */
  88:Core/Src/usart.c ****     /* Peripheral clock disable */
  89:Core/Src/usart.c ****     __HAL_RCC_LPUART1_CLK_DISABLE();
  90:Core/Src/usart.c **** 
  91:Core/Src/usart.c ****     /**LPUART1 GPIO Configuration
  92:Core/Src/usart.c ****     PA0-CK_IN     ------> LPUART1_RX
  93:Core/Src/usart.c ****     PA1     ------> LPUART1_TX
  94:Core/Src/usart.c ****     */
  95:Core/Src/usart.c ****     HAL_GPIO_DeInit(GPIOA, GPIO_PIN_0|GPIO_PIN_1);
  96:Core/Src/usart.c **** 
  97:Core/Src/usart.c ****   /* USER CODE BEGIN LPUART1_MspDeInit 1 */
ARM GAS  /tmp/ccjOi2j1.s 			page 7


  98:Core/Src/usart.c **** 
  99:Core/Src/usart.c ****   /* USER CODE END LPUART1_MspDeInit 1 */
 100:Core/Src/usart.c ****   }
 101:Core/Src/usart.c **** }
 232              		.loc 1 101 1 view .LVU59
 233              		@ sp needed
 234 000a 10BD     		pop	{r4, pc}
 235              	.LVL10:
 236              	.L13:
  89:Core/Src/usart.c **** 
 237              		.loc 1 89 5 is_stmt 1 view .LVU60
 238 000c 064A     		ldr	r2, .L14+4
 239 000e 936B     		ldr	r3, [r2, #56]
 240 0010 0649     		ldr	r1, .L14+8
 241 0012 0B40     		ands	r3, r1
 242 0014 9363     		str	r3, [r2, #56]
  95:Core/Src/usart.c **** 
 243              		.loc 1 95 5 view .LVU61
 244 0016 A020     		movs	r0, #160
 245              	.LVL11:
  95:Core/Src/usart.c **** 
 246              		.loc 1 95 5 is_stmt 0 view .LVU62
 247 0018 0321     		movs	r1, #3
 248 001a C005     		lsls	r0, r0, #23
 249 001c FFF7FEFF 		bl	HAL_GPIO_DeInit
 250              	.LVL12:
 251              		.loc 1 101 1 view .LVU63
 252 0020 F3E7     		b	.L11
 253              	.L15:
 254 0022 C046     		.align	2
 255              	.L14:
 256 0024 00480040 		.word	1073760256
 257 0028 00100240 		.word	1073876992
 258 002c FFFFFBFF 		.word	-262145
 259              		.cfi_endproc
 260              	.LFE42:
 262              		.comm	hlpuart1,132,4
 263              		.text
 264              	.Letext0:
 265              		.file 2 "/usr/lib/gcc/arm-none-eabi/9.2.1/include/stdint.h"
 266              		.file 3 "Drivers/CMSIS/Device/ST/STM32L0xx/Include/system_stm32l0xx.h"
 267              		.file 4 "Drivers/CMSIS/Device/ST/STM32L0xx/Include/stm32l011xx.h"
 268              		.file 5 "Drivers/STM32L0xx_HAL_Driver/Inc/stm32l0xx_hal_def.h"
 269              		.file 6 "Drivers/STM32L0xx_HAL_Driver/Inc/stm32l0xx_hal_gpio.h"
 270              		.file 7 "Drivers/STM32L0xx_HAL_Driver/Inc/stm32l0xx_hal_dma.h"
 271              		.file 8 "Drivers/STM32L0xx_HAL_Driver/Inc/stm32l0xx_hal_uart.h"
 272              		.file 9 "Drivers/STM32L0xx_HAL_Driver/Inc/stm32l0xx_hal.h"
 273              		.file 10 "Core/Inc/usart.h"
 274              		.file 11 "Core/Inc/main.h"
 275              		.file 12 "<built-in>"
ARM GAS  /tmp/ccjOi2j1.s 			page 8

